target datalayout = "e-m:e-p270:32:32-p271:32:32-p272:64:64-i64:64-i128:128-f80:128-n8:16:32:64-S128"
target triple = "x86_64-unknown-linux-gnu"

%"class.std::__cxx11::basic_string" = type { %"struct.std::__cxx11::basic_string<char>::_Alloc_hider", i64, %union.anon }
%"struct.std::__cxx11::basic_string<char>::_Alloc_hider" = type { ptr }
%union.anon = type { i64, [8 x i8] }
%"class.std::allocator" = type { i8 }

@.str.114 = private unnamed_addr constant [2 x i8] c"\\\00", align 1
@.str.245 = private unnamed_addr constant [50 x i8] c"basic_string: construction from null is not valid\00", align 1

; Function Attrs: mustprogress nounwind uwtable
define linkonce_odr dso_local noundef i64 @_ZNSt11char_traitsIcE6lengthEPKc(ptr noundef %__s) #4 comdat align 2 {
entry:
  %__s.addr = alloca ptr, align 8
  store ptr %__s, ptr %__s.addr, align 8
  %0 = load ptr, ptr %__s.addr, align 8
  %call = call i64 @strlen(ptr noundef %0) #3
  ret i64 %call
}

; Function Attrs: mustprogress nounwind uwtable
define linkonce_odr dso_local void @_ZStplIcSt11char_traitsIcESaIcEENSt7__cxx1112basic_stringIT_T0_T1_EEOS8_S5_(ptr noalias sret(%"class.std::__cxx11::basic_string") align 8 %agg.result, ptr noundef nonnull align 8 dereferenceable(32) %__lhs, i8 noundef signext %__rhs) #4 comdat {
entry:
  %result.ptr = alloca ptr, align 8
  %__lhs.addr = alloca ptr, align 8
  %__rhs.addr = alloca i8, align 1
  store ptr %agg.result, ptr %result.ptr, align 8
  store ptr %__lhs, ptr %__lhs.addr, align 8
  store i8 %__rhs, ptr %__rhs.addr, align 1
  %0 = load ptr, ptr %__lhs.addr, align 8
  %1 = load i8, ptr %__rhs.addr, align 1
  %call = call noundef nonnull align 8 dereferenceable(32) ptr @_ZNSt7__cxx1112basic_stringIcSt11char_traitsIcESaIcEE6appendEmc(ptr noundef nonnull align 8 dereferenceable(32) %0, i64 noundef 1, i8 noundef signext %1)
  call void @_ZNSt7__cxx1112basic_stringIcSt11char_traitsIcESaIcEEC1EOS4_(ptr noundef nonnull align 8 dereferenceable(32) %agg.result, ptr noundef nonnull align 8 dereferenceable(32) %call) #3
  ret void
}

; Function Attrs: mustprogress nounwind uwtable
define linkonce_odr dso_local void @_ZNSt7__cxx1112basic_stringIcSt11char_traitsIcESaIcEEC2IS3_EEPKcRKS3_(ptr noundef nonnull align 8 dereferenceable(32) %this, ptr noundef %__s, ptr noundef nonnull align 1 dereferenceable(1) %__a) unnamed_addr #4 comdat align 2 {
entry:
  %this.addr = alloca ptr, align 8
  %__s.addr = alloca ptr, align 8
  %__a.addr = alloca ptr, align 8
  %__end = alloca ptr, align 8
  store ptr %this, ptr %this.addr, align 8
  store ptr %__s, ptr %__s.addr, align 8
  store ptr %__a, ptr %__a.addr, align 8
  %this1 = load ptr, ptr %this.addr, align 8
  %_M_dataplus = getelementptr inbounds %"class.std::__cxx11::basic_string", ptr %this1, i32 0, i32 0
  %call = call noundef ptr @_ZNSt7__cxx1112basic_stringIcSt11char_traitsIcESaIcEE13_M_local_dataEv(ptr noundef nonnull align 8 dereferenceable(32) %this1)
  %0 = load ptr, ptr %__a.addr, align 8
  call void @_ZNSt7__cxx1112basic_stringIcSt11char_traitsIcESaIcEE12_Alloc_hiderC1EPcRKS3_(ptr noundef nonnull align 8 dereferenceable(8) %_M_dataplus, ptr noundef %call, ptr noundef nonnull align 1 dereferenceable(1) %0)
  %1 = load ptr, ptr %__s.addr, align 8
  %cmp = icmp eq ptr %1, null
  br i1 %cmp, label %if.then, label %if.end

if.then:                                          ; preds = %entry
  call void @_ZSt19__throw_logic_errorPKc(ptr noundef @.str.245) #20
  unreachable

if.end:                                           ; preds = %entry
  %2 = load ptr, ptr %__s.addr, align 8
  %3 = load ptr, ptr %__s.addr, align 8
  %call2 = call noundef i64 @_ZNSt11char_traitsIcE6lengthEPKc(ptr noundef %3)
  %add.ptr = getelementptr inbounds i8, ptr %2, i64 %call2
  store ptr %add.ptr, ptr %__end, align 8
  %4 = load ptr, ptr %__s.addr, align 8
  %5 = load ptr, ptr %__end, align 8
  call void @_ZNSt7__cxx1112basic_stringIcSt11char_traitsIcESaIcEE12_M_constructIPKcEEvT_S8_St20forward_iterator_tag(ptr noundef nonnull align 8 dereferenceable(32) %this1, ptr noundef %4, ptr noundef %5)
  ret void
}

; Function Attrs: mustprogress nounwind uwtable
define linkonce_odr dso_local void @_ZNSt7__cxx1112basic_stringIcSt11char_traitsIcESaIcEEC2IS3_EEmcRKS3_(ptr noundef nonnull align 8 dereferenceable(32) %this, i64 noundef %__n, i8 noundef signext %__c, ptr noundef nonnull align 1 dereferenceable(1) %__a) unnamed_addr #4 comdat align 2 {
entry:
  %this.addr = alloca ptr, align 8
  %__n.addr = alloca i64, align 8
  %__c.addr = alloca i8, align 1
  %__a.addr = alloca ptr, align 8
  store ptr %this, ptr %this.addr, align 8
  store i64 %__n, ptr %__n.addr, align 8
  store i8 %__c, ptr %__c.addr, align 1
  store ptr %__a, ptr %__a.addr, align 8
  %this1 = load ptr, ptr %this.addr, align 8
  %_M_dataplus = getelementptr inbounds %"class.std::__cxx11::basic_string", ptr %this1, i32 0, i32 0
  %call = call noundef ptr @_ZNSt7__cxx1112basic_stringIcSt11char_traitsIcESaIcEE13_M_local_dataEv(ptr noundef nonnull align 8 dereferenceable(32) %this1)
  %0 = load ptr, ptr %__a.addr, align 8
  call void @_ZNSt7__cxx1112basic_stringIcSt11char_traitsIcESaIcEE12_Alloc_hiderC1EPcRKS3_(ptr noundef nonnull align 8 dereferenceable(8) %_M_dataplus, ptr noundef %call, ptr noundef nonnull align 1 dereferenceable(1) %0)
  %1 = load i64, ptr %__n.addr, align 8
  %2 = load i8, ptr %__c.addr, align 1
  call void @_ZNSt7__cxx1112basic_stringIcSt11char_traitsIcESaIcEE12_M_constructEmc(ptr noundef nonnull align 8 dereferenceable(32) %this1, i64 noundef %1, i8 noundef signext %2)
  ret void
}

; Function Attrs: mustprogress nounwind uwtable
define dso_local void @_ZN4node13ToOctalStringB5cxx11Eh(ptr noalias sret(%"class.std::__cxx11::basic_string") align 8 %agg.result, i8 noundef zeroext %ch) #4 {
entry:
  %result.ptr = alloca ptr, align 8
  %ch.addr = alloca i8, align 1
  %ref.tmp = alloca %"class.std::allocator", align 1
  %c0 = alloca i8, align 1
  %c1 = alloca i8, align 1
  %c2 = alloca i8, align 1
  %ref.tmp23 = alloca %"class.std::__cxx11::basic_string", align 8
  %ref.tmp24 = alloca %"class.std::__cxx11::basic_string", align 8
  %ref.tmp25 = alloca %"class.std::__cxx11::basic_string", align 8
  %ref.tmp26 = alloca %"class.std::allocator", align 1
  store ptr %agg.result, ptr %result.ptr, align 8
  store i8 %ch, ptr %ch.addr, align 1
  %0 = load i8, ptr %ch.addr, align 1
  %conv = zext i8 %0 to i32
  %cmp = icmp sge i32 %conv, 32
  br i1 %cmp, label %land.lhs.true, label %if.end

land.lhs.true:                                    ; preds = %entry
  %1 = load i8, ptr %ch.addr, align 1
  %conv1 = zext i8 %1 to i32
  %cmp2 = icmp sle i32 %conv1, 126
  br i1 %cmp2, label %land.lhs.true3, label %if.end

land.lhs.true3:                                   ; preds = %land.lhs.true
  %2 = load i8, ptr %ch.addr, align 1
  %conv4 = zext i8 %2 to i32
  %cmp5 = icmp ne i32 %conv4, 92
  br i1 %cmp5, label %land.lhs.true6, label %if.end

land.lhs.true6:                                   ; preds = %land.lhs.true3
  %3 = load i8, ptr %ch.addr, align 1
  %conv7 = zext i8 %3 to i32
  %cmp8 = icmp ne i32 %conv7, 34
  br i1 %cmp8, label %land.lhs.true9, label %if.end

land.lhs.true9:                                   ; preds = %land.lhs.true6
  %4 = load i8, ptr %ch.addr, align 1
  %conv10 = zext i8 %4 to i32
  %cmp11 = icmp ne i32 %conv10, 63
  br i1 %cmp11, label %if.then, label %if.end

if.then:                                          ; preds = %land.lhs.true9
  %5 = load i8, ptr %ch.addr, align 1
  call void @_ZNSaIcEC1Ev(ptr noundef nonnull align 1 dereferenceable(1) %ref.tmp) #3
  call void @_ZNSt7__cxx1112basic_stringIcSt11char_traitsIcESaIcEEC2IS3_EEmcRKS3_(ptr noundef nonnull align 8 dereferenceable(32) %agg.result, i64 noundef 1, i8 noundef signext %5, ptr noundef nonnull align 1 dereferenceable(1) %ref.tmp)
  call void @_ZNSaIcED1Ev(ptr noundef nonnull align 1 dereferenceable(1) %ref.tmp) #3
  br label %return

if.end:                                           ; preds = %land.lhs.true9, %land.lhs.true6, %land.lhs.true3, %land.lhs.true, %entry
  %6 = load i8, ptr %ch.addr, align 1
  %conv12 = zext i8 %6 to i32
  %shr = ashr i32 %conv12, 6
  %and = and i32 %shr, 7
  %add = add nsw i32 48, %and
  %conv13 = trunc i32 %add to i8
  store i8 %conv13, ptr %c0, align 1
  %7 = load i8, ptr %ch.addr, align 1
  %conv14 = zext i8 %7 to i32
  %shr15 = ashr i32 %conv14, 3
  %and16 = and i32 %shr15, 7
  %add17 = add nsw i32 48, %and16
  %conv18 = trunc i32 %add17 to i8
  store i8 %conv18, ptr %c1, align 1
  %8 = load i8, ptr %ch.addr, align 1
  %conv19 = zext i8 %8 to i32
  %and20 = and i32 %conv19, 7
  %add21 = add nsw i32 48, %and20
  %conv22 = trunc i32 %add21 to i8
  store i8 %conv22, ptr %c2, align 1
  call void @_ZNSaIcEC1Ev(ptr noundef nonnull align 1 dereferenceable(1) %ref.tmp26) #3
  call void @_ZNSt7__cxx1112basic_stringIcSt11char_traitsIcESaIcEEC2IS3_EEPKcRKS3_(ptr noundef nonnull align 8 dereferenceable(32) %ref.tmp25, ptr noundef @.str.114, ptr noundef nonnull align 1 dereferenceable(1) %ref.tmp26)
  %9 = load i8, ptr %c0, align 1
  call void @_ZStplIcSt11char_traitsIcESaIcEENSt7__cxx1112basic_stringIT_T0_T1_EEOS8_S5_(ptr sret(%"class.std::__cxx11::basic_string") align 8 %ref.tmp24, ptr noundef nonnull align 8 dereferenceable(32) %ref.tmp25, i8 noundef signext %9)
  %10 = load i8, ptr %c1, align 1
  call void @_ZStplIcSt11char_traitsIcESaIcEENSt7__cxx1112basic_stringIT_T0_T1_EEOS8_S5_(ptr sret(%"class.std::__cxx11::basic_string") align 8 %ref.tmp23, ptr noundef nonnull align 8 dereferenceable(32) %ref.tmp24, i8 noundef signext %10)
  %11 = load i8, ptr %c2, align 1
  call void @_ZStplIcSt11char_traitsIcESaIcEENSt7__cxx1112basic_stringIT_T0_T1_EEOS8_S5_(ptr sret(%"class.std::__cxx11::basic_string") align 8 %agg.result, ptr noundef nonnull align 8 dereferenceable(32) %ref.tmp23, i8 noundef signext %11)
  call void @_ZNSt7__cxx1112basic_stringIcSt11char_traitsIcESaIcEED1Ev(ptr noundef nonnull align 8 dereferenceable(32) %ref.tmp23) #3
  call void @_ZNSt7__cxx1112basic_stringIcSt11char_traitsIcESaIcEED1Ev(ptr noundef nonnull align 8 dereferenceable(32) %ref.tmp24) #3
  call void @_ZNSt7__cxx1112basic_stringIcSt11char_traitsIcESaIcEED1Ev(ptr noundef nonnull align 8 dereferenceable(32) %ref.tmp25) #3
  call void @_ZNSaIcED1Ev(ptr noundef nonnull align 1 dereferenceable(1) %ref.tmp26) #3
  br label %return

return:                                           ; preds = %if.end, %if.then
  ret void
}