; Function Attrs: mustprogress nounwind uwtable
define dso_local void @_ZN4node13ToOctalStringB5cxx11Eh(ptr noalias sret(%"class.std::__cxx11::basic_string") align 8 %agg.result, i8 noundef zeroext %ch) local_unnamed_addr #3 {
entry:
  %ref.tmp = alloca %"class.std::allocator", align 1
  %ref.tmp23 = alloca %"class.std::__cxx11::basic_string", align 8
  %ref.tmp24 = alloca %"class.std::__cxx11::basic_string", align 8
  %ref.tmp25 = alloca %"class.std::__cxx11::basic_string", align 8
  %ref.tmp26 = alloca %"class.std::allocator", align 1
  %0 = add i8 %ch, -32
  %or.cond = icmp ult i8 %0, 95
  br i1 %or.cond, label %switch.early.test, label %if.end

switch.early.test:                                ; preds = %entry
  switch i8 %ch, label %if.then [
    i8 92, label %if.end
    i8 63, label %if.end
    i8 34, label %if.end
  ]

if.then:                                          ; preds = %switch.early.test
  call void @_ZNSaIcEC1Ev(ptr noundef nonnull align 1 dereferenceable(1) %ref.tmp) #23
  %call.i = call noundef ptr @_ZNSt7__cxx1112basic_stringIcSt11char_traitsIcESaIcEE13_M_local_dataEv(ptr noundef nonnull align 8 dereferenceable(32) %agg.result) #23
  call void @_ZNSt7__cxx1112basic_stringIcSt11char_traitsIcESaIcEE12_Alloc_hiderC1EPcRKS3_(ptr noundef nonnull align 8 dereferenceable(8) %agg.result, ptr noundef %call.i, ptr noundef nonnull align 1 dereferenceable(1) %ref.tmp) #23
  call void @_ZNSt7__cxx1112basic_stringIcSt11char_traitsIcESaIcEE12_M_constructEmc(ptr noundef nonnull align 8 dereferenceable(32) %agg.result, i64 noundef 1, i8 noundef signext %ch) #23
  br label %return

if.end:                                           ; preds = %switch.early.test, %switch.early.test, %switch.early.test, %entry
  %shr = lshr i8 %ch, 6
  %add = or disjoint i8 %shr, 48
  %shr15 = lshr i8 %ch, 3
  %and16 = and i8 %shr15, 7
  %add17 = or disjoint i8 %and16, 48
  %1 = and i8 %ch, 7
  %2 = or disjoint i8 %1, 48
  call void @_ZNSaIcEC1Ev(ptr noundef nonnull align 1 dereferenceable(1) %ref.tmp26) #23
  %call.i12 = call noundef ptr @_ZNSt7__cxx1112basic_stringIcSt11char_traitsIcESaIcEE13_M_local_dataEv(ptr noundef nonnull align 8 dereferenceable(32) %ref.tmp25) #23
  call void @_ZNSt7__cxx1112basic_stringIcSt11char_traitsIcESaIcEE12_Alloc_hiderC1EPcRKS3_(ptr noundef nonnull align 8 dereferenceable(8) %ref.tmp25, ptr noundef %call.i12, ptr noundef nonnull align 1 dereferenceable(1) %ref.tmp26) #23
  call void @_ZNSt7__cxx1112basic_stringIcSt11char_traitsIcESaIcEE12_M_constructIPKcEEvT_S8_St20forward_iterator_tag(ptr noundef nonnull align 8 dereferenceable(32) %ref.tmp25, ptr noundef nonnull @.str.114, ptr noundef nonnull getelementptr inbounds ([2 x i8], ptr @.str.114, i64 0, i64 1))
  %call.i13 = call noundef nonnull align 8 dereferenceable(32) ptr @_ZNSt7__cxx1112basic_stringIcSt11char_traitsIcESaIcEE6appendEmc(ptr noundef nonnull align 8 dereferenceable(32) %ref.tmp25, i64 noundef 1, i8 noundef signext %add) #23, !noalias !235
  call void @_ZNSt7__cxx1112basic_stringIcSt11char_traitsIcESaIcEEC1EOS4_(ptr noundef nonnull align 8 dereferenceable(32) %ref.tmp24, ptr noundef nonnull align 8 dereferenceable(32) %call.i13) #23
  %call.i14 = call noundef nonnull align 8 dereferenceable(32) ptr @_ZNSt7__cxx1112basic_stringIcSt11char_traitsIcESaIcEE6appendEmc(ptr noundef nonnull align 8 dereferenceable(32) %ref.tmp24, i64 noundef 1, i8 noundef signext %add17) #23, !noalias !238
  call void @_ZNSt7__cxx1112basic_stringIcSt11char_traitsIcESaIcEEC1EOS4_(ptr noundef nonnull align 8 dereferenceable(32) %ref.tmp23, ptr noundef nonnull align 8 dereferenceable(32) %call.i14) #23
  %call.i15 = call noundef nonnull align 8 dereferenceable(32) ptr @_ZNSt7__cxx1112basic_stringIcSt11char_traitsIcESaIcEE6appendEmc(ptr noundef nonnull align 8 dereferenceable(32) %ref.tmp23, i64 noundef 1, i8 noundef signext %2) #23, !noalias !241
  call void @_ZNSt7__cxx1112basic_stringIcSt11char_traitsIcESaIcEEC1EOS4_(ptr noundef nonnull align 8 dereferenceable(32) %agg.result, ptr noundef nonnull align 8 dereferenceable(32) %call.i15) #23
  call void @_ZNSt7__cxx1112basic_stringIcSt11char_traitsIcESaIcEED1Ev(ptr noundef nonnull align 8 dereferenceable(32) %ref.tmp23) #23
  call void @_ZNSt7__cxx1112basic_stringIcSt11char_traitsIcESaIcEED1Ev(ptr noundef nonnull align 8 dereferenceable(32) %ref.tmp24) #23
  call void @_ZNSt7__cxx1112basic_stringIcSt11char_traitsIcESaIcEED1Ev(ptr noundef nonnull align 8 dereferenceable(32) %ref.tmp25) #23
  br label %return

return:                                           ; preds = %if.end, %if.then
  %ref.tmp26.sink = phi ptr [ %ref.tmp26, %if.end ], [ %ref.tmp, %if.then ]
  call void @_ZNSaIcED1Ev(ptr noundef nonnull align 1 dereferenceable(1) %ref.tmp26.sink) #23
  ret void
}